(dp0
(S'distance13FalseTrue'
p1
I3
tp2
cnumpy.core.multiarray
scalar
p3
(cnumpy
dtype
p4
(S'f8'
p5
I0
I1
tp6
Rp7
(I3
S'<'
p8
NNNI-1
I-1
I0
tp9
bS'\x02\xb0\xf4\x849\xa6G\xc0'
p10
tp11
Rp12
s(S'distance15FalseFalse'
p13
I0
tp14
F-1.1999999999999997
s(S'distance11FalseTrue'
p15
I1
tp16
g3
(g7
S'\xb6\xaaXU0\x99/\xc0'
p17
tp18
Rp19
s(S'distance12FalseTrue'
p20
I4
tp21
g3
(g7
S'd\xd9\xc7\x0fBe;\xc0'
p22
tp23
Rp24
s(S'distance7FalseFalse'
p25
I1
tp26
g3
(g7
S'\xac\xba\xc4\xb3\xba\x8d&@'
p27
tp28
Rp29
s(S'distance9FalseTrue'
p30
I0
tp31
g3
(g7
S'~\xd7\xe2Mlo\x1b\xc0'
p32
tp33
Rp34
s(S'distance2FalseFalse'
p35
I4
tp36
I-23
s(S'distance10FalseFalse'
p37
I3
tp38
g3
(g7
S'\xce\x80><>\x1d\xf6?'
p39
tp40
Rp41
s(S'distance15FalseFalse'
p42
I3
tp43
F-1.5899999999999999
s(S'distance10FalseTrue'
p44
I2
tp45
g3
(g7
S'\xe7Y\xa8\xe7\xd9\x8d9\xc0'
p46
tp47
Rp48
s(S'distance14FalseFalse'
p49
I1
tp50
g3
(g7
S'\xb0\x84Y\xc3!9@@'
p51
tp52
Rp53
s(S'distance11FalseFalse'
p54
I1
tp55
g3
(g7
S'\xa0\x9d\xacL\x89.\xf4\xbf'
p56
tp57
Rp58
s(S'distance7FalseTrue'
p59
I2
tp60
g3
(g7
S'm\xfa\x80\xa7P\x1f/\xc0'
p61
tp62
Rp63
s(S'distance8FalseTrue'
p64
I0
tp65
g3
(g7
S'\xc15\xc8\xda\xc75 @'
p66
tp67
Rp68
s(S'distance16FalseFalse'
p69
I4
tp70
g3
(g7
S'\xf6\x97\xf29\x80\x03J@'
p71
tp72
Rp73
s(S'distance9FalseTrue'
p74
I3
tp75
g3
(g7
S'\xfc\x08\x90\xd4aV;\xc0'
p76
tp77
Rp78
s(S'distance2FalseFalse'
p79
I1
tp80
F0.0
s(S'distance1FalseTrue'
p81
I1
tp82
I0
s(S'distance10FalseFalse'
p83
I0
tp84
g3
(g7
S'\xc4\xcf)\xe6M\x8d*@'
p85
tp86
Rp87
s(S'distance9FalseTrue'
p88
I4
tp89
I-42
s(S'distance15FalseTrue'
p90
I2
tp91
g3
(g7
S'\xbb-\xb1\r,\x1bB\xc0'
p92
tp93
Rp94
s(S'distance11FalseFalse'
p95
I4
tp96
I-23
s(S'distance7FalseTrue'
p97
I1
tp98
g3
(g7
S'\x0cg$\xe8O\xa3\xff\xbf'
p99
tp100
Rp101
s(S'distance15FalseFalse'
p102
I4
tp103
g3
(g7
S'\x1e\x80v\xf4\xba\xe6B@'
p104
tp105
Rp106
s(S'distance15FalseTrue'
p107
I1
tp108
g3
(g7
S'\xe4\x9f\xaa\x13\xb2\xa3C\xc0'
p109
tp110
Rp111
s(S'distance13FalseFalse'
p112
I0
tp113
g3
(g7
S'\xc6\x830\xd3Nl8@'
p114
tp115
Rp116
s(S'distance16FalseTrue'
p117
I3
tp118
I-3
s(S'distance12FalseTrue'
p119
I0
tp120
g3
(g7
S'\x14\xaa/D\xbc5(\xc0'
p121
tp122
Rp123
s(S'distance14FalseTrue'
p124
I1
tp125
g3
(g7
S'\x00cd^t3I\xc0'
p126
tp127
Rp128
s(S'distance11FalseTrue'
p129
I0
tp130
g3
(g7
S'f\xbf5\x84w\x8a9\xc0'
p131
tp132
Rp133
s(S'distance6FalseTrue'
p134
I2
tp135
I3
s(S'distance15FalseTrue'
p136
I4
tp137
g3
(g7
S'h#\x97\n\x91H\x01\xc0'
p138
tp139
Rp140
s(S'distance8FalseTrue'
p141
I4
tp142
I-23
s(S'distance12FalseFalse'
p143
I0
tp144
g3
(g7
S'\x85\x8d\xad[\xa2\x8f\x18\xc0'
p145
tp146
Rp147
s(S'distance10FalseFalse'
p148
I4
tp149
I-23
s(S'distance12FalseFalse'
p150
I4
tp151
I-23
s(S'distance15FalseFalse'
p152
I2
tp153
F-0.16843999999999992
s(S'distance10FalseTrue'
p154
I3
tp155
g3
(g7
S'\xa7n\xc1"\xfd\xe93\xc0'
p156
tp157
Rp158
s(S'distance14FalseFalse'
p159
I2
tp160
I-3
s(S'distance11FalseFalse'
p161
I0
tp162
g3
(g7
S'+8A\xae\xa0\xa1$@'
p163
tp164
Rp165
s(S'distance8FalseTrue'
p166
I1
tp167
g3
(g7
S'\xb3W\x17\x13\x0cJ\x19@'
p168
tp169
Rp170
s(S'distance9FalseFalse'
p171
I1
tp172
g3
(g7
S'\xe0?\x87\xc2#\xff,@'
p173
tp174
Rp175
s(S'distance7FalseFalse'
p176
I3
tp177
I-3
s(S'distance9FalseTrue'
p178
I2
tp179
I-30
s(S'distance2FalseFalse'
p180
I2
tp181
I-13
s(S'distance10FalseFalse'
p182
I1
tp183
I-19
s(S'distance12FalseFalse'
p184
I1
tp185
g3
(g7
S'%o\xe0Ri]2@'
p186
tp187
Rp188
s(S'distance10FalseTrue'
p189
I0
tp190
g3
(g7
S'\xb6\xfa\xbb\xca\xfbe2\xc0'
p191
tp192
Rp193
s(S'distance13FalseFalse'
p194
I4
tp195
I-21
s(S'distance11FalseFalse'
p196
I3
tp197
I-19
s(S'distance7FalseTrue'
p198
I0
tp199
g3
(g7
S'\xc6v\rE\xeei\xf0?'
p200
tp201
Rp202
s(S'distance13FalseTrue'
p203
I0
tp204
g3
(g7
S'\xca_\x16Y5\xc3\x06@'
p205
tp206
Rp207
s(S'distance12FalseFalse'
p208
I2
tp209
g3
(g7
S'/\x8d\xe4-\xa00\xf2\xbf'
p210
tp211
Rp212
s(S'distance11FalseTrue'
p213
I4
tp214
F-37.125
s(S'distance15FalseTrue'
p215
I0
tp216
g3
(g7
S'\x98\x13\x8dXn\xfaC\xc0'
p217
tp218
Rp219
s(S'distance13FalseFalse'
p220
I3
tp221
g3
(g7
S'\x1c\x83\x9cC\xf3v\x06\xc0'
p222
tp223
Rp224
s(S'distance14FalseFalse'
p225
I4
tp226
g3
(g7
S'AM\x08mF\x17 \xc0'
p227
tp228
Rp229
s(S'distance12FalseTrue'
p230
I1
tp231
g3
(g7
S'\xae\xfc\x1e\x93\xb8\xecA\xc0'
p232
tp233
Rp234
s(S'distance14FalseTrue'
p235
I2
tp236
g3
(g7
S'\x14\xda\xbb\xdb\xfa\x13?\xc0'
p237
tp238
Rp239
s(S'distance11FalseTrue'
p240
I3
tp241
g3
(g7
S'\xec\xb4\x8e\x15\xc5\n@\xc0'
p242
tp243
Rp244
s(S'distance12FalseTrue'
p245
I2
tp246
g3
(g7
S'\xfe\xf0\x81M2zA\xc0'
p247
tp248
Rp249
s(S'distance13FalseTrue'
p250
I1
tp251
g3
(g7
S'G+D\xc9j\xc0@\xc0'
p252
tp253
Rp254
s(S'distance15FalseFalse'
p255
I1
tp256
F0.0
s(S'distance10FalseTrue'
p257
I4
tp258
F-35.25
s(S'distance14FalseFalse'
p259
I3
tp260
I-3
s(S'distance7FalseTrue'
p261
I4
tp262
I-23
s(S'distance14FalseTrue'
p263
I4
tp264
g3
(g7
S',M\xcce_\xbe0@'
p265
tp266
Rp267
s(S'distance7FalseFalse'
p268
I2
tp269
I-3
s(S'distance9FalseTrue'
p270
I1
tp271
g3
(g7
S'2\x06 \xbeJ\xf9\x13\xc0'
p272
tp273
Rp274
s(S'distance2FalseFalse'
p275
I3
tp276
F0.0
s(S'distance10FalseFalse'
p277
I2
tp278
g3
(g7
S'\x85\xf7\xc5|\xe5j\x1e@'
p279
tp280
Rp281
s(S'distance10FalseTrue'
p282
I1
tp283
g3
(g7
S'\xf6\x95]4FH#\xc0'
p284
tp285
Rp286
s(S'distance14FalseFalse'
p287
I0
tp288
F-0.8539899999999998
s(S'distance16FalseTrue'
p289
I4
tp290
g3
(g7
S'\xf8,@\xf0t\xd6B@'
p291
tp292
Rp293
s(S'distance11FalseFalse'
p294
I2
tp295
g3
(g7
S'\xa0\xa4\xbf4\xccs\xd1?'
p296
tp297
Rp298
s(S'distance7FalseTrue'
p299
I3
tp300
g3
(g7
S'z\xba\xaa\x80_\xe31\xc0'
p301
tp302
Rp303
s(S'distance8FalseTrue'
p304
I3
tp305
g3
(g7
S'\xce\xc7\xf8\xc8\x8b& @'
p306
tp307
Rp308
s(S'distance13FalseTrue'
p309
I2
tp310
g3
(g7
S'\xad\xb1\x9a\x9f\xed\xfe@\xc0'
p311
tp312
Rp313
s(S'distance13FalseTrue'
p314
I4
tp315
g3
(g7
S'\xf9-q\xc9\xa5\xab@\xc0'
p316
tp317
Rp318
s(S'distance2FalseFalse'
p319
I0
tp320
I-8
s(S'distance1FalseTrue'
p321
I2
tp322
I-6
s(S'distance12FalseFalse'
p323
I3
tp324
g3
(g7
S'>\x85\x8bz\x80\xed\xeb?'
p325
tp326
Rp327
s(S'distance15FalseTrue'
p328
I3
tp329
g3
(g7
S'\xd1\xaav@f5<\xc0'
p330
tp331
Rp332
s(S'distance13FalseFalse'
p333
I2
tp334
g3
(g7
S'\x84\xa3\xcb\xb4p\xb7\r\xc0'
p335
tp336
Rp337
s(S'distance16FalseTrue'
p338
I1
tp339
g3
(g7
S'R\x80\xc9\x10\x96R\xe4\xbf'
p340
tp341
Rp342
s(S'distance14FalseTrue'
p343
I3
tp344
g3
(g7
S'\x92\x96C\x83\x86(L\xc0'
p345
tp346
Rp347
s(S'distance11FalseTrue'
p348
I2
tp349
g3
(g7
S'\xa2\x1f\xa3\xc7\x16ZA\xc0'
p350
tp351
Rp352
s(S'distance13FalseFalse'
p353
I1
tp354
g3
(g7
S'\x14z\x0c\xebsv\x08\xc0'
p355
tp356
Rp357
s(S'distance16FalseTrue'
p358
I2
tp359
I-3
s(S'distance12FalseTrue'
p360
I3
tp361
g3
(g7
S"'\xc0]\x9cy\x9fE\xc0"
p362
tp363
Rp364
s(S'distance14FalseTrue'
p365
I0
tp366
g3
(g7
S'4h,\xd9Dz@\xc0'
p367
tp368
Rp369
s.