(dp0
(S'distance9FalseTrue'
p1
I3
tp2
cnumpy.core.multiarray
scalar
p3
(cnumpy
dtype
p4
(S'f8'
p5
I0
I1
tp6
Rp7
(I3
S'<'
p8
NNNI-1
I-1
I0
tp9
bS'}\x9e\xf3\x1e\x9d\xe74\xc0'
p10
tp11
Rp12
s(S'distance15FalseFalse'
p13
I0
tp14
F-1.1999999999999997
s(S'distance11FalseTrue'
p15
I1
tp16
g3
(g7
S'\xc4T\x8a\xad\x00\x1e"\xc0'
p17
tp18
Rp19
s(S'distance12FalseTrue'
p20
I4
tp21
g3
(g7
S'\x99\\\xbb\xa8\xc8*@\xc0'
p22
tp23
Rp24
s(S'distance7FalseFalse'
p25
I1
tp26
g3
(g7
S'\xac\xba\xc4\xb3\xba\x8d&@'
p27
tp28
Rp29
s(S'distance13FalseTrue'
p30
I0
tp31
g3
(g7
S'm\xc6\xa0\xcb\xf0nC\xc0'
p32
tp33
Rp34
s(S'distance2FalseFalse'
p35
I4
tp36
I-23
s(S'distance10FalseFalse'
p37
I3
tp38
g3
(g7
S'\xce\x80><>\x1d\xf6?'
p39
tp40
Rp41
s(S'distance15FalseFalse'
p42
I3
tp43
F-1.5899999999999999
s(S'distance10FalseTrue'
p44
I2
tp45
g3
(g7
S'#c\xb1\xc4\x81)8\xc0'
p46
tp47
Rp48
s(S'distance14FalseFalse'
p49
I1
tp50
g3
(g7
S'\xb0\x84Y\xc3!9@@'
p51
tp52
Rp53
s(S'distance11FalseFalse'
p54
I1
tp55
g3
(g7
S'\xa0\x9d\xacL\x89.\xf4\xbf'
p56
tp57
Rp58
s(S'distance7FalseTrue'
p59
I2
tp60
g3
(g7
S'm\xfa\x80\xa7P\x1f/\xc0'
p61
tp62
Rp63
s(S'distance8FalseTrue'
p64
I0
tp65
g3
(g7
S'\xc15\xc8\xda\xc75 @'
p66
tp67
Rp68
s(S'distance16FalseFalse'
p69
I4
tp70
g3
(g7
S'\xf6\x97\xf29\x80\x03J@'
p71
tp72
Rp73
s(S'distance13FalseTrue'
p74
I3
tp75
g3
(g7
S'\x02\xb0\xf4\x849\xa6G\xc0'
p76
tp77
Rp78
s(S'distance2FalseFalse'
p79
I1
tp80
F0.0
s(S'distance1FalseTrue'
p81
I1
tp82
I0
s(S'distance10FalseFalse'
p83
I0
tp84
g3
(g7
S'\xc4\xcf)\xe6M\x8d*@'
p85
tp86
Rp87
s(S'distance9FalseTrue'
p88
I4
tp89
I-42
s(S'distance15FalseTrue'
p90
I2
tp91
g3
(g7
S'\x00_zUG\x98\xe0?'
p92
tp93
Rp94
s(S'distance11FalseFalse'
p95
I4
tp96
I-23
s(S'distance7FalseTrue'
p97
I1
tp98
g3
(g7
S'\xc2cU\xc3\x80\xf8\xeb?'
p99
tp100
Rp101
s(S'distance15FalseFalse'
p102
I4
tp103
g3
(g7
S'\x1e\x80v\xf4\xba\xe6B@'
p104
tp105
Rp106
s(S'distance15FalseTrue'
p107
I1
tp108
g3
(g7
S'\xe4\x9f\xaa\x13\xb2\xa3C\xc0'
p109
tp110
Rp111
s(S'distance13FalseFalse'
p112
I0
tp113
g3
(g7
S'\xc6\x830\xd3Nl8@'
p114
tp115
Rp116
s(S'distance16FalseTrue'
p117
I3
tp118
I-3
s(S'distance12FalseTrue'
p119
I0
tp120
g3
(g7
S'\xd0\xb0\xd6!&T,\xc0'
p121
tp122
Rp123
s(S'distance14FalseTrue'
p124
I1
tp125
g3
(g7
S's\x08\xf4\xf2\xa8$E\xc0'
p126
tp127
Rp128
s(S'distance11FalseTrue'
p129
I0
tp130
g3
(g7
S'\xfd\x07\xc7\xf3\x12\xbd,\xc0'
p131
tp132
Rp133
s(S'distance6FalseTrue'
p134
I2
tp135
I3
s(S'distance15FalseTrue'
p136
I4
tp137
g3
(g7
S'\xcc\xe5$\xb2\xe6\x07A\xc0'
p138
tp139
Rp140
s(S'distance8FalseTrue'
p141
I4
tp142
I-23
s(S'distance12FalseFalse'
p143
I0
tp144
g3
(g7
S'\x85\x8d\xad[\xa2\x8f\x18\xc0'
p145
tp146
Rp147
s(S'distance10FalseFalse'
p148
I4
tp149
I-23
s(S'distance12FalseFalse'
p150
I4
tp151
I-23
s(S'distance15FalseFalse'
p152
I2
tp153
F-0.16843999999999992
s(S'distance10FalseTrue'
p154
I3
tp155
g3
(g7
S'<q\xcb\x06\xac\x812\xc0'
p156
tp157
Rp158
s(S'distance14FalseFalse'
p159
I2
tp160
I-3
s(S'distance11FalseFalse'
p161
I0
tp162
g3
(g7
S'+8A\xae\xa0\xa1$@'
p163
tp164
Rp165
s(S'distance8FalseTrue'
p166
I1
tp167
g3
(g7
S'\xb3W\x17\x13\x0cJ\x19@'
p168
tp169
Rp170
s(S'distance9FalseFalse'
p171
I1
tp172
g3
(g7
S'\xe0?\x87\xc2#\xff,@'
p173
tp174
Rp175
s(S'distance7FalseFalse'
p176
I3
tp177
I-3
s(S'distance13FalseTrue'
p178
I2
tp179
g3
(g7
S'\xac\xec\xde\x0b\x03\xe8A\xc0'
p180
tp181
Rp182
s(S'distance2FalseFalse'
p183
I2
tp184
I-13
s(S'distance10FalseFalse'
p185
I1
tp186
I-19
s(S'distance12FalseFalse'
p187
I1
tp188
g3
(g7
S'%o\xe0Ri]2@'
p189
tp190
Rp191
s(S'distance10FalseTrue'
p192
I0
tp193
g3
(g7
S'\x108u\x0cd\xa78\xc0'
p194
tp195
Rp196
s(S'distance13FalseFalse'
p197
I4
tp198
I-21
s(S'distance11FalseFalse'
p199
I3
tp200
I-19
s(S'distance7FalseTrue'
p201
I0
tp202
g3
(g7
S'\xb0\n\x14,,=\xd0?'
p203
tp204
Rp205
s(S'distance9FalseTrue'
p206
I0
tp207
g3
(g7
S'p.\xdf\xab\xfe\x06\xff\xbf'
p208
tp209
Rp210
s(S'distance12FalseFalse'
p211
I2
tp212
g3
(g7
S'/\x8d\xe4-\xa00\xf2\xbf'
p213
tp214
Rp215
s(S'distance11FalseTrue'
p216
I4
tp217
F-32.25
s(S'distance15FalseTrue'
p218
I0
tp219
g3
(g7
S'"\xa7:\xf6\xff\xdaF\xc0'
p220
tp221
Rp222
s(S'distance13FalseFalse'
p223
I3
tp224
g3
(g7
S'\x1c\x83\x9cC\xf3v\x06\xc0'
p225
tp226
Rp227
s(S'distance14FalseFalse'
p228
I4
tp229
g3
(g7
S'AM\x08mF\x17 \xc0'
p230
tp231
Rp232
s(S'distance12FalseTrue'
p233
I1
tp234
g3
(g7
S'\xb2\xa1\x80\x1b\xb0\x16=\xc0'
p235
tp236
Rp237
s(S'distance14FalseTrue'
p238
I2
tp239
g3
(g7
S'\x98E\xf6\x9f\xd2\xc4D\xc0'
p240
tp241
Rp242
s(S'distance11FalseTrue'
p243
I3
tp244
g3
(g7
S'k]\xc3h\xe0\xc9;\xc0'
p245
tp246
Rp247
s(S'distance12FalseTrue'
p248
I2
tp249
g3
(g7
S'\xea[\xdb\xf9\xc8\x06?\xc0'
p250
tp251
Rp252
s(S'distance13FalseTrue'
p253
I1
tp254
g3
(g7
S'\x88\xb5\xe19\x8a\x8d&\xc0'
p255
tp256
Rp257
s(S'distance15FalseFalse'
p258
I1
tp259
F0.0
s(S'distance10FalseTrue'
p260
I4
tp261
F-35.25
s(S'distance14FalseFalse'
p262
I3
tp263
I-3
s(S'distance7FalseTrue'
p264
I4
tp265
I-23
s(S'distance14FalseTrue'
p266
I4
tp267
g3
(g7
S'd\xc6\xb7\x10/\xb8D\xc0'
p268
tp269
Rp270
s(S'distance7FalseFalse'
p271
I2
tp272
I-3
s(S'distance9FalseTrue'
p273
I1
tp274
g3
(g7
S'\xfa\x9d`r\x1eh\xf4\xbf'
p275
tp276
Rp277
s(S'distance2FalseFalse'
p278
I3
tp279
F0.0
s(S'distance10FalseFalse'
p280
I2
tp281
g3
(g7
S'\x85\xf7\xc5|\xe5j\x1e@'
p282
tp283
Rp284
s(S'distance10FalseTrue'
p285
I1
tp286
g3
(g7
S'N\x17xf6\x1d\x1a\xc0'
p287
tp288
Rp289
s(S'distance14FalseFalse'
p290
I0
tp291
F-0.8539899999999998
s(S'distance16FalseTrue'
p292
I4
tp293
g3
(g7
S'4\xcaY\xa8\xf6"C@'
p294
tp295
Rp296
s(S'distance11FalseFalse'
p297
I2
tp298
g3
(g7
S'\xa0\xa4\xbf4\xccs\xd1?'
p299
tp300
Rp301
s(S'distance7FalseTrue'
p302
I3
tp303
g3
(g7
S'z\xba\xaa\x80_\xe31\xc0'
p304
tp305
Rp306
s(S'distance8FalseTrue'
p307
I3
tp308
g3
(g7
S'\xce\xc7\xf8\xc8\x8b& @'
p309
tp310
Rp311
s(S'distance9FalseTrue'
p312
I2
tp313
I-30
s(S'distance13FalseTrue'
p314
I4
tp315
g3
(g7
S'O4\xf4\xc7j}D\xc0'
p316
tp317
Rp318
s(S'distance2FalseFalse'
p319
I0
tp320
I-8
s(S'distance1FalseTrue'
p321
I2
tp322
I-6
s(S'distance12FalseFalse'
p323
I3
tp324
g3
(g7
S'>\x85\x8bz\x80\xed\xeb?'
p325
tp326
Rp327
s(S'distance15FalseTrue'
p328
I3
tp329
g3
(g7
S'X\xd0\x81c\xf7\x88B\xc0'
p330
tp331
Rp332
s(S'distance13FalseFalse'
p333
I2
tp334
g3
(g7
S'\x84\xa3\xcb\xb4p\xb7\r\xc0'
p335
tp336
Rp337
s(S'distance16FalseTrue'
p338
I1
tp339
g3
(g7
S'R\x80\xc9\x10\x96R\xe4\xbf'
p340
tp341
Rp342
s(S'distance14FalseTrue'
p343
I3
tp344
g3
(g7
S'm=J\xb7\xa9\xd7G\xc0'
p345
tp346
Rp347
s(S'distance11FalseTrue'
p348
I2
tp349
g3
(g7
S'\xa2\x1f\xa3\xc7\x16ZA\xc0'
p350
tp351
Rp352
s(S'distance13FalseFalse'
p353
I1
tp354
g3
(g7
S'\x14z\x0c\xebsv\x08\xc0'
p355
tp356
Rp357
s(S'distance16FalseTrue'
p358
I2
tp359
I-3
s(S'distance12FalseTrue'
p360
I3
tp361
g3
(g7
S'\x1c\x1a\xa1\xc9\xb1\xbb>\xc0'
p362
tp363
Rp364
s(S'distance14FalseTrue'
p365
I0
tp366
g3
(g7
S'`NT6.\xaa4\xc0'
p367
tp368
Rp369
s.