(dp0
(S'distance13FalseTrue'
p1
I3
tp2
F-2523.859422673764
s(S'distance15FalseFalse'
p3
I0
tp4
F-1210.0
s(S'distance11FalseTrue'
p5
I1
tp6
F1976.834348967081
s(S'distance6FalseTrue'
p7
I1
tp8
F1238.153387416174
s(S'distance12FalseTrue'
p9
I4
tp10
F-2699.268361472681
s(S'distance7FalseFalse'
p11
I1
tp12
F-987.3495294332572
s(S'distance9FalseTrue'
p13
I0
tp14
F-173.24105858478248
s(S'distance2FalseFalse'
p15
I4
tp16
I-900
s(S'distance10FalseFalse'
p17
I3
tp18
I-400
s(S'distance15FalseFalse'
p19
I3
tp20
F-600.0
s(S'distance10FalseTrue'
p21
I2
tp22
F-113.44119468815546
s(S'distance14FalseFalse'
p23
I1
tp24
F624.2
s(S'distance10FalseTrue'
p25
I0
tp26
F1639.0483420345936
s(S'distance11FalseFalse'
p27
I1
tp28
F1261.6333910829549
s(S'distance7FalseTrue'
p29
I2
tp30
F-243.93993890481238
s(S'distance8FalseTrue'
p31
I0
tp32
F1337.5310937093795
s(S'distance16FalseFalse'
p33
I4
tp34
F4450.0
s(S'distance9FalseTrue'
p35
I3
tp36
I-400
s(S'distance2FalseFalse'
p37
I1
tp38
F-621.5999999999999
s(S'distance1FalseTrue'
p39
I1
tp40
F-919.6689664
s(S'distance10FalseFalse'
p41
I0
tp42
F2931.0641350818123
s(S'distance12FalseFalse'
p43
I0
tp44
F-416.3471840758973
s(S'distance15FalseTrue'
p45
I2
tp46
F-233.2615977605435
s(S'distance11FalseFalse'
p47
I4
tp48
F-1050.9597667193793
s(S'distance7FalseTrue'
p49
I1
tp50
F-295.93020030185266
s(S'distance1FalseTrue'
p51
I4
tp52
I-1200
s(S'distance15FalseFalse'
p53
I4
tp54
I-1200
s(S'distance1FalseFalse'
p55
I3
tp56
F1160.3404177377654
s(S'distance15FalseTrue'
p57
I1
tp58
F-813.3087158203125
s(S'distance13FalseFalse'
p59
I0
tp60
F-2186.0573072970183
s(S'distance16FalseTrue'
p61
I3
tp62
I-1500
s(S'distance12FalseTrue'
p63
I0
tp64
F-1033.701492227854
s(S'distance14FalseTrue'
p65
I1
tp66
F2513.9977695134094
s(S'distance11FalseTrue'
p67
I0
tp68
F338.5778541547178
s(S'distance6FalseTrue'
p69
I2
tp70
I-300
s(S'distance15FalseTrue'
p71
I4
tp72
F3828.1760721375626
s(S'distance9FalseFalse'
p73
I2
tp74
I-1100
s(S'distance16FalseFalse'
p75
I0
tp76
I-1100
s(S'distance7FalseFalse'
p77
I0
tp78
F-89.98778826040723
s(S'distance6FalseTrue'
p79
I0
tp80
I-700
s(S'distance10FalseFalse'
p81
I4
tp82
I-1200
s(S'distance12FalseFalse'
p83
I4
tp84
F-1095.7798468782598
s(S'distance12FalseFalse'
p85
I2
tp86
F-1255.0379728835883
s(S'distance15FalseFalse'
p87
I2
tp88
I-1100
s(S'distance10FalseTrue'
p89
I3
tp90
F-1290.7106411080226
s(S'distance14FalseFalse'
p91
I2
tp92
I-1100
s(S'distance11FalseFalse'
p93
I0
tp94
F171.9292188879598
s(S'distance7FalseFalse'
p95
I3
tp96
F2238.545191569543
s(S'distance13FalseTrue'
p97
I2
tp98
F-687.0870331284896
s(S'distance2FalseFalse'
p99
I2
tp100
I-1100
s(S'distance1FalseTrue'
p101
I0
tp102
I-700
s(S'distance10FalseFalse'
p103
I1
tp104
F-711.0303184687382
s(S'distance12FalseFalse'
p105
I1
tp106
F-956.6388832554476
s(S'distance13FalseTrue'
p107
I4
tp108
F-279.68878955824175
s(S'distance6FalseTrue'
p109
I4
tp110
I-1200
s(S'distance13FalseFalse'
p111
I4
tp112
F-1949.1822369651948
s(S'distance11FalseFalse'
p113
I3
tp114
I-2300
s(S'distance7FalseTrue'
p115
I0
tp116
F2449.657040940715
s(S'distance13FalseTrue'
p117
I0
tp118
F-308.78176348170143
s(S'distance1FalseTrue'
p119
I3
tp120
I-1100
s(S'distance5FalseTrue'
p121
I3
tp122
I-1100
s(S'distance11FalseTrue'
p123
I4
tp124
I-1900
s(S'distance15FalseTrue'
p125
I0
tp126
I-1100
s(S'distance13FalseFalse'
p127
I3
tp128
F-890.6306158520526
s(S'distance14FalseFalse'
p129
I4
tp130
I-1200
s(S'distance16FalseTrue'
p131
I0
tp132
I-1600
s(S'distance12FalseTrue'
p133
I1
tp134
F2732.152772883003
s(S'distance14FalseTrue'
p135
I2
tp136
F-735.5684735654891
s(S'distance7FalseFalse'
p137
I4
tp138
I-1200
s(S'distance11FalseTrue'
p139
I3
tp140
F-898.0169489059667
s(S'distance6FalseTrue'
p141
I3
tp142
I-1100
s(S'distance12FalseTrue'
p143
I2
tp144
F833.5920685078324
s(S'distance9FalseTrue'
p145
I1
tp146
F2031.4156766691872
s(S'distance15FalseFalse'
p147
I1
tp148
F3040.25
s(S'distance10FalseTrue'
p149
I4
tp150
I-900
s(S'distance14FalseFalse'
p151
I3
tp152
F-430.4404957905205
s(S'distance7FalseTrue'
p153
I4
tp154
I-1200
s(S'distance9FalseFalse'
p155
I0
tp156
F3327.990579958044
s(S'distance14FalseTrue'
p157
I4
tp158
I-2900
s(S'distance7FalseFalse'
p159
I2
tp160
F-1568.0198376445846
s(S'distance13FalseTrue'
p161
I1
tp162
F581.2940292426596
s(S'distance2FalseFalse'
p163
I3
tp164
F1009.925417
s(S'distance10FalseFalse'
p165
I2
tp166
I-1100
s(S'distance10FalseTrue'
p167
I1
tp168
F-343.0934910279065
s(S'distance14FalseFalse'
p169
I0
tp170
F-768.2401809803383
s(S'distance11FalseFalse'
p171
I2
tp172
F-1540.487650441893
s(S'distance7FalseTrue'
p173
I3
tp174
F-755.692390282315
s(S'distance9FalseTrue'
p175
I2
tp176
I-400
s(S'distance9FalseTrue'
p177
I4
tp178
I-900
s(S'distance2FalseFalse'
p179
I0
tp180
I-700
s(S'distance1FalseTrue'
p181
I2
tp182
F1003.281371766407
s(S'distance12FalseFalse'
p183
I3
tp184
F-1118.205324374902
s(S'distance15FalseTrue'
p185
I3
tp186
I-1500
s(S'distance13FalseFalse'
p187
I2
tp188
F-1959.3328652281305
s(S'distance14FalseTrue'
p189
I3
tp190
F-210.06773932620922
s(S'distance5FalseTrue'
p191
I0
tp192
I-700
s(S'distance11FalseTrue'
p193
I2
tp194
F185.91220722302876
s(S'distance13FalseFalse'
p195
I1
tp196
F-1811.4686195721226
s(S'distance12FalseTrue'
p197
I3
tp198
F-1926.316033775399
s(S'distance14FalseTrue'
p199
I0
tp200
F-890.2136670008148
s.